; Function Attrs: mustprogress nofree norecurse nosync nounwind willreturn memory(read, argmem: readwrite, inaccessiblemem: none) uwtable
define hidden noundef zeroext i1 @_ZN11bv_rewriter11is_urem_anyEP4exprRS1_S2_(ptr noundef nonnull readonly align 8 captures(none) dereferenceable(157) %0, ptr noundef readonly captures(none) %1, ptr noundef nonnull writeonly align 8 captures(none) dereferenceable(8) %2, ptr noundef nonnull writeonly align 8 captures(none) dereferenceable(8) %3) local_unnamed_addr #10 align 2 {
  %5 = getelementptr inbounds nuw i8, ptr %0, i64 8
  %6 = load i32, ptr %5, align 8, !tbaa !75
  %7 = getelementptr inbounds nuw i8, ptr %1, i64 4
  %8 = load i32, ptr %7, align 4
  %9 = and i32 %8, 65535
  %10 = icmp eq i32 %9, 0
  br i1 %10, label %11, label %_ZNK14bv_recognizers11is_bv_uremiEPK4expr.exit.thread

11:                                               ; preds = %4
  %12 = getelementptr inbounds nuw i8, ptr %1, i64 16
  %13 = load ptr, ptr %12, align 8, !tbaa !78
  %14 = getelementptr inbounds nuw i8, ptr %13, i64 24
  %15 = load ptr, ptr %14, align 8, !tbaa !57
  %.not.i.i.i.i = icmp eq ptr %15, null
  br i1 %.not.i.i.i.i, label %_ZNK14bv_recognizers11is_bv_uremiEPK4expr.exit.thread, label %_ZNK14bv_recognizers10is_bv_uremEPK4expr.exit

_ZNK14bv_recognizers10is_bv_uremEPK4expr.exit:    ; preds = %11
  %16 = load i32, ptr %15, align 8, !tbaa !82
  %17 = icmp eq i32 %16, %6
  %18 = getelementptr inbounds nuw i8, ptr %15, i64 4
  %19 = load i32, ptr %18, align 4
  %20 = icmp eq i32 %19, 10
  %21 = select i1 %17, i1 %20, i1 false
  br i1 %21, label %28, label %_ZNK14bv_recognizers11is_bv_uremiEPK4expr.exit

_ZNK14bv_recognizers11is_bv_uremiEPK4expr.exit:   ; preds = %_ZNK14bv_recognizers10is_bv_uremEPK4expr.exit
  %22 = load i32, ptr %15, align 8, !tbaa !82
  %23 = icmp eq i32 %22, %6
  %24 = getelementptr inbounds nuw i8, ptr %15, i64 4
  %25 = load i32, ptr %24, align 4
  %26 = icmp eq i32 %25, 20
  %27 = select i1 %23, i1 %26, i1 false
  br i1 %27, label %28, label %_ZNK14bv_recognizers11is_bv_uremiEPK4expr.exit.thread

28:                                               ; preds = %_ZNK14bv_recognizers11is_bv_uremiEPK4expr.exit, %_ZNK14bv_recognizers10is_bv_uremEPK4expr.exit
  %29 = getelementptr inbounds nuw i8, ptr %1, i64 32
  %30 = load ptr, ptr %29, align 8, !tbaa !67
  store ptr %30, ptr %2, align 8, !tbaa !67
  %31 = getelementptr inbounds nuw i8, ptr %1, i64 40
  %32 = load ptr, ptr %31, align 8, !tbaa !67
  store ptr %32, ptr %3, align 8, !tbaa !67
  br label %_ZNK14bv_recognizers11is_bv_uremiEPK4expr.exit.thread

_ZNK14bv_recognizers11is_bv_uremiEPK4expr.exit.thread: ; preds = %11, %4, %_ZNK14bv_recognizers11is_bv_uremiEPK4expr.exit, %28
  %.0 = phi i1 [ true, %28 ], [ false, %_ZNK14bv_recognizers11is_bv_uremiEPK4expr.exit ], [ false, %4 ], [ false, %11 ]
  ret i1 %.0
}